target datalayout = "e-m:e-p270:32:32-p271:32:32-p272:64:64-i64:64-i128:128-f80:128-n8:16:32:64-S128"
target triple = "x86_64-pc-linux-gnu"

%struct.gmx_sparsematrix = type { i8, i32, ptr, ptr, ptr }
%struct.gmx_sparsematrix_entry = type { i32, float }

; Function Attrs: mustprogress nounwind uwtable
define void @_Z32gmx_sparsematrix_vector_multiplyP16gmx_sparsematrixPKfPf(ptr noundef %0, ptr noundef %1, ptr noundef %2) #3 {
  %4 = alloca ptr, align 8
  %5 = alloca ptr, align 8
  %6 = alloca ptr, align 8
  %7 = alloca float, align 4
  %8 = alloca float, align 4
  %9 = alloca float, align 4
  %10 = alloca i32, align 4
  %11 = alloca i32, align 4
  %12 = alloca i32, align 4
  %13 = alloca ptr, align 8
  store ptr %0, ptr %4, align 8, !tbaa !7
  store ptr %1, ptr %5, align 8, !tbaa !58
  store ptr %2, ptr %6, align 8, !tbaa !58
  call void @llvm.lifetime.start.p0(i64 4, ptr %7) #7
  call void @llvm.lifetime.start.p0(i64 4, ptr %8) #7
  call void @llvm.lifetime.start.p0(i64 4, ptr %9) #7
  call void @llvm.lifetime.start.p0(i64 4, ptr %10) #7
  call void @llvm.lifetime.start.p0(i64 4, ptr %11) #7
  call void @llvm.lifetime.start.p0(i64 4, ptr %12) #7
  call void @llvm.lifetime.start.p0(i64 8, ptr %13) #7
  store i32 0, ptr %10, align 4, !tbaa !3
  br label %14

14:                                               ; preds = %25, %3
  %15 = load i32, ptr %10, align 4, !tbaa !3
  %16 = load ptr, ptr %4, align 8, !tbaa !7
  %17 = getelementptr inbounds nuw %struct.gmx_sparsematrix, ptr %16, i32 0, i32 1
  %18 = load i32, ptr %17, align 4, !tbaa !10
  %19 = icmp slt i32 %15, %18
  br i1 %19, label %20, label %28

20:                                               ; preds = %14
  %21 = load ptr, ptr %6, align 8, !tbaa !58
  %22 = load i32, ptr %10, align 4, !tbaa !3
  %23 = sext i32 %22 to i64
  %24 = getelementptr inbounds float, ptr %21, i64 %23
  store float 0.000000e+00, ptr %24, align 4, !tbaa !49
  br label %25

25:                                               ; preds = %20
  %26 = load i32, ptr %10, align 4, !tbaa !3
  %27 = add nsw i32 %26, 1
  store i32 %27, ptr %10, align 4, !tbaa !3
  br label %14, !llvm.loop !60

28:                                               ; preds = %14
  %29 = load ptr, ptr %4, align 8, !tbaa !7
  %30 = getelementptr inbounds nuw %struct.gmx_sparsematrix, ptr %29, i32 0, i32 0
  %31 = load i8, ptr %30, align 8, !tbaa !61, !range !50, !noundef !51
  %32 = trunc i8 %31 to i1
  br i1 %32, label %33, label %112

33:                                               ; preds = %28
  store i32 0, ptr %10, align 4, !tbaa !3
  br label %34

34:                                               ; preds = %108, %33
  %35 = load i32, ptr %10, align 4, !tbaa !3
  %36 = load ptr, ptr %4, align 8, !tbaa !7
  %37 = getelementptr inbounds nuw %struct.gmx_sparsematrix, ptr %36, i32 0, i32 1
  %38 = load i32, ptr %37, align 4, !tbaa !10
  %39 = icmp slt i32 %35, %38
  br i1 %39, label %40, label %111

40:                                               ; preds = %34
  %41 = load ptr, ptr %5, align 8, !tbaa !58
  %42 = load i32, ptr %10, align 4, !tbaa !3
  %43 = sext i32 %42 to i64
  %44 = getelementptr inbounds float, ptr %41, i64 %43
  %45 = load float, ptr %44, align 4, !tbaa !49
  store float %45, ptr %9, align 4, !tbaa !49
  store float 0.000000e+00, ptr %7, align 4, !tbaa !49
  %46 = load ptr, ptr %4, align 8, !tbaa !7
  %47 = getelementptr inbounds nuw %struct.gmx_sparsematrix, ptr %46, i32 0, i32 4
  %48 = load ptr, ptr %47, align 8, !tbaa !18
  %49 = load i32, ptr %10, align 4, !tbaa !3
  %50 = sext i32 %49 to i64
  %51 = getelementptr inbounds ptr, ptr %48, i64 %50
  %52 = load ptr, ptr %51, align 8, !tbaa !19
  store ptr %52, ptr %13, align 8, !tbaa !19
  store i32 0, ptr %12, align 4, !tbaa !3
  br label %53

53:                                               ; preds = %97, %40
  %54 = load i32, ptr %12, align 4, !tbaa !3
  %55 = load ptr, ptr %4, align 8, !tbaa !7
  %56 = getelementptr inbounds nuw %struct.gmx_sparsematrix, ptr %55, i32 0, i32 2
  %57 = load ptr, ptr %56, align 8, !tbaa !16
  %58 = load i32, ptr %10, align 4, !tbaa !3
  %59 = sext i32 %58 to i64
  %60 = getelementptr inbounds i32, ptr %57, i64 %59
  %61 = load i32, ptr %60, align 4, !tbaa !3
  %62 = icmp slt i32 %54, %61
  br i1 %62, label %63, label %100

63:                                               ; preds = %53
  %64 = load ptr, ptr %13, align 8, !tbaa !19
  %65 = load i32, ptr %12, align 4, !tbaa !3
  %66 = sext i32 %65 to i64
  %67 = getelementptr inbounds %struct.gmx_sparsematrix_entry, ptr %64, i64 %66
  %68 = getelementptr inbounds nuw %struct.gmx_sparsematrix_entry, ptr %67, i32 0, i32 0
  %69 = load i32, ptr %68, align 4, !tbaa !40
  store i32 %69, ptr %11, align 4, !tbaa !3
  %70 = load ptr, ptr %13, align 8, !tbaa !19
  %71 = load i32, ptr %12, align 4, !tbaa !3
  %72 = sext i32 %71 to i64
  %73 = getelementptr inbounds %struct.gmx_sparsematrix_entry, ptr %70, i64 %72
  %74 = getelementptr inbounds nuw %struct.gmx_sparsematrix_entry, ptr %73, i32 0, i32 1
  %75 = load float, ptr %74, align 4, !tbaa !44
  store float %75, ptr %8, align 4, !tbaa !49
  %76 = load float, ptr %8, align 4, !tbaa !49
  %77 = load ptr, ptr %5, align 8, !tbaa !58
  %78 = load i32, ptr %11, align 4, !tbaa !3
  %79 = sext i32 %78 to i64
  %80 = getelementptr inbounds float, ptr %77, i64 %79
  %81 = load float, ptr %80, align 4, !tbaa !49
  %82 = load float, ptr %7, align 4, !tbaa !49
  %83 = call float @llvm.fmuladd.f32(float %76, float %81, float %82)
  store float %83, ptr %7, align 4, !tbaa !49
  %84 = load i32, ptr %10, align 4, !tbaa !3
  %85 = load i32, ptr %11, align 4, !tbaa !3
  %86 = icmp ne i32 %84, %85
  br i1 %86, label %87, label %96

87:                                               ; preds = %63
  %88 = load float, ptr %8, align 4, !tbaa !49
  %89 = load float, ptr %9, align 4, !tbaa !49
  %90 = load ptr, ptr %6, align 8, !tbaa !58
  %91 = load i32, ptr %11, align 4, !tbaa !3
  %92 = sext i32 %91 to i64
  %93 = getelementptr inbounds float, ptr %90, i64 %92
  %94 = load float, ptr %93, align 4, !tbaa !49
  %95 = call float @llvm.fmuladd.f32(float %88, float %89, float %94)
  store float %95, ptr %93, align 4, !tbaa !49
  br label %96

96:                                               ; preds = %87, %63
  br label %97

97:                                               ; preds = %96
  %98 = load i32, ptr %12, align 4, !tbaa !3
  %99 = add nsw i32 %98, 1
  store i32 %99, ptr %12, align 4, !tbaa !3
  br label %53, !llvm.loop !62

100:                                              ; preds = %53
  %101 = load float, ptr %7, align 4, !tbaa !49
  %102 = load ptr, ptr %6, align 8, !tbaa !58
  %103 = load i32, ptr %10, align 4, !tbaa !3
  %104 = sext i32 %103 to i64
  %105 = getelementptr inbounds float, ptr %102, i64 %104
  %106 = load float, ptr %105, align 4, !tbaa !49
  %107 = fadd float %106, %101
  store float %107, ptr %105, align 4, !tbaa !49
  br label %108

108:                                              ; preds = %100
  %109 = load i32, ptr %10, align 4, !tbaa !3
  %110 = add nsw i32 %109, 1
  store i32 %110, ptr %10, align 4, !tbaa !3
  br label %34, !llvm.loop !63

111:                                              ; preds = %34
  br label %173

112:                                              ; preds = %28
  store i32 0, ptr %10, align 4, !tbaa !3
  br label %113

113:                                              ; preds = %169, %112
  %114 = load i32, ptr %10, align 4, !tbaa !3
  %115 = load ptr, ptr %4, align 8, !tbaa !7
  %116 = getelementptr inbounds nuw %struct.gmx_sparsematrix, ptr %115, i32 0, i32 1
  %117 = load i32, ptr %116, align 4, !tbaa !10
  %118 = icmp slt i32 %114, %117
  br i1 %118, label %119, label %172

119:                                              ; preds = %113
  store float 0.000000e+00, ptr %7, align 4, !tbaa !49
  %120 = load ptr, ptr %4, align 8, !tbaa !7
  %121 = getelementptr inbounds nuw %struct.gmx_sparsematrix, ptr %120, i32 0, i32 4
  %122 = load ptr, ptr %121, align 8, !tbaa !18
  %123 = load i32, ptr %10, align 4, !tbaa !3
  %124 = sext i32 %123 to i64
  %125 = getelementptr inbounds ptr, ptr %122, i64 %124
  %126 = load ptr, ptr %125, align 8, !tbaa !19
  store ptr %126, ptr %13, align 8, !tbaa !19
  store i32 0, ptr %12, align 4, !tbaa !3
  br label %127

127:                                              ; preds = %158, %119
  %128 = load i32, ptr %12, align 4, !tbaa !3
  %129 = load ptr, ptr %4, align 8, !tbaa !7
  %130 = getelementptr inbounds nuw %struct.gmx_sparsematrix, ptr %129, i32 0, i32 2
  %131 = load ptr, ptr %130, align 8, !tbaa !16
  %132 = load i32, ptr %10, align 4, !tbaa !3
  %133 = sext i32 %132 to i64
  %134 = getelementptr inbounds i32, ptr %131, i64 %133
  %135 = load i32, ptr %134, align 4, !tbaa !3
  %136 = icmp slt i32 %128, %135
  br i1 %136, label %137, label %161

137:                                              ; preds = %127
  %138 = load ptr, ptr %13, align 8, !tbaa !19
  %139 = load i32, ptr %12, align 4, !tbaa !3
  %140 = sext i32 %139 to i64
  %141 = getelementptr inbounds %struct.gmx_sparsematrix_entry, ptr %138, i64 %140
  %142 = getelementptr inbounds nuw %struct.gmx_sparsematrix_entry, ptr %141, i32 0, i32 0
  %143 = load i32, ptr %142, align 4, !tbaa !40
  store i32 %143, ptr %11, align 4, !tbaa !3
  %144 = load ptr, ptr %13, align 8, !tbaa !19
  %145 = load i32, ptr %12, align 4, !tbaa !3
  %146 = sext i32 %145 to i64
  %147 = getelementptr inbounds %struct.gmx_sparsematrix_entry, ptr %144, i64 %146
  %148 = getelementptr inbounds nuw %struct.gmx_sparsematrix_entry, ptr %147, i32 0, i32 1
  %149 = load float, ptr %148, align 4, !tbaa !44
  store float %149, ptr %8, align 4, !tbaa !49
  %150 = load float, ptr %8, align 4, !tbaa !49
  %151 = load ptr, ptr %5, align 8, !tbaa !58
  %152 = load i32, ptr %11, align 4, !tbaa !3
  %153 = sext i32 %152 to i64
  %154 = getelementptr inbounds float, ptr %151, i64 %153
  %155 = load float, ptr %154, align 4, !tbaa !49
  %156 = load float, ptr %7, align 4, !tbaa !49
  %157 = call float @llvm.fmuladd.f32(float %150, float %155, float %156)
  store float %157, ptr %7, align 4, !tbaa !49
  br label %158

158:                                              ; preds = %137
  %159 = load i32, ptr %12, align 4, !tbaa !3
  %160 = add nsw i32 %159, 1
  store i32 %160, ptr %12, align 4, !tbaa !3
  br label %127, !llvm.loop !64

161:                                              ; preds = %127
  %162 = load float, ptr %7, align 4, !tbaa !49
  %163 = load ptr, ptr %6, align 8, !tbaa !58
  %164 = load i32, ptr %10, align 4, !tbaa !3
  %165 = sext i32 %164 to i64
  %166 = getelementptr inbounds float, ptr %163, i64 %165
  %167 = load float, ptr %166, align 4, !tbaa !49
  %168 = fadd float %167, %162
  store float %168, ptr %166, align 4, !tbaa !49
  br label %169

169:                                              ; preds = %161
  %170 = load i32, ptr %10, align 4, !tbaa !3
  %171 = add nsw i32 %170, 1
  store i32 %171, ptr %10, align 4, !tbaa !3
  br label %113, !llvm.loop !65

172:                                              ; preds = %113
  br label %173

173:                                              ; preds = %172, %111
  call void @llvm.lifetime.end.p0(i64 8, ptr %13) #7
  call void @llvm.lifetime.end.p0(i64 4, ptr %12) #7
  call void @llvm.lifetime.end.p0(i64 4, ptr %11) #7
  call void @llvm.lifetime.end.p0(i64 4, ptr %10) #7
  call void @llvm.lifetime.end.p0(i64 4, ptr %9) #7
  call void @llvm.lifetime.end.p0(i64 4, ptr %8) #7
  call void @llvm.lifetime.end.p0(i64 4, ptr %7) #7
  ret void
}