; Function Attrs: mustprogress nofree norecurse nosync nounwind memory(read, argmem: readwrite, inaccessiblemem: none) uwtable
define void @_Z32gmx_sparsematrix_vector_multiplyP16gmx_sparsematrixPKfPf(ptr noundef readonly captures(none) %0, ptr noundef readonly captures(none) %1, ptr noundef captures(none) %2) local_unnamed_addr #7 {
  %4 = getelementptr inbounds nuw i8, ptr %0, i64 4
  %5 = load i32, ptr %4, align 4, !tbaa !3
  %6 = icmp sgt i32 %5, 0
  br i1 %6, label %._crit_edge, label %.loopexit

._crit_edge:                                      ; preds = %3
  %7 = zext nneg i32 %5 to i64
  %8 = shl nuw nsw i64 %7, 2
  tail call void @llvm.memset.p0.i64(ptr align 4 %2, i8 0, i64 %8, i1 false), !tbaa !38
  %9 = load i8, ptr %0, align 8, !tbaa !39, !range !40, !noundef !41
  %10 = trunc nuw i8 %9 to i1
  %11 = getelementptr inbounds nuw i8, ptr %0, i64 24
  %12 = load ptr, ptr %11, align 8, !tbaa !22
  %13 = getelementptr inbounds nuw i8, ptr %0, i64 8
  %14 = load ptr, ptr %13, align 8, !tbaa !15
  %wide.trip.count93 = zext nneg i32 %5 to i64
  br i1 %10, label %.lr.ph75, label %.lr.ph67

.lr.ph75:                                         ; preds = %._crit_edge, %._crit_edge72
  %indvars.iv90 = phi i64 [ %indvars.iv.next91, %._crit_edge72 ], [ 0, %._crit_edge ]
  %15 = getelementptr inbounds nuw float, ptr %1, i64 %indvars.iv90
  %16 = load float, ptr %15, align 4, !tbaa !38
  %17 = getelementptr inbounds nuw ptr, ptr %12, i64 %indvars.iv90
  %18 = load ptr, ptr %17, align 8, !tbaa !18
  %19 = getelementptr inbounds nuw i32, ptr %14, i64 %indvars.iv90
  %20 = load i32, ptr %19, align 4, !tbaa !17
  %21 = icmp sgt i32 %20, 0
  br i1 %21, label %.lr.ph71.preheader, label %._crit_edge72

.lr.ph71.preheader:                               ; preds = %.lr.ph75
  %wide.trip.count88 = zext nneg i32 %20 to i64
  br label %.lr.ph71

.lr.ph71:                                         ; preds = %.lr.ph71.preheader, %35
  %indvars.iv85 = phi i64 [ 0, %.lr.ph71.preheader ], [ %indvars.iv.next86, %35 ]
  %.05568 = phi float [ 0.000000e+00, %.lr.ph71.preheader ], [ %29, %35 ]
  %22 = getelementptr inbounds nuw %struct.gmx_sparsematrix_entry, ptr %18, i64 %indvars.iv85
  %23 = load i32, ptr %22, align 4, !tbaa !25
  %24 = getelementptr inbounds nuw i8, ptr %22, i64 4
  %25 = load float, ptr %24, align 4, !tbaa !29
  %26 = sext i32 %23 to i64
  %27 = getelementptr inbounds float, ptr %1, i64 %26
  %28 = load float, ptr %27, align 4, !tbaa !38
  %29 = tail call float @llvm.fmuladd.f32(float %25, float %28, float %.05568)
  %30 = zext i32 %23 to i64
  %.not = icmp eq i64 %indvars.iv90, %30
  br i1 %.not, label %35, label %31

31:                                               ; preds = %.lr.ph71
  %32 = getelementptr inbounds float, ptr %2, i64 %26
  %33 = load float, ptr %32, align 4, !tbaa !38
  %34 = tail call float @llvm.fmuladd.f32(float %25, float %16, float %33)
  store float %34, ptr %32, align 4, !tbaa !38
  br label %35

35:                                               ; preds = %.lr.ph71, %31
  %indvars.iv.next86 = add nuw nsw i64 %indvars.iv85, 1
  %exitcond89.not = icmp eq i64 %indvars.iv.next86, %wide.trip.count88
  br i1 %exitcond89.not, label %._crit_edge72, label %.lr.ph71, !llvm.loop !42

._crit_edge72:                                    ; preds = %35, %.lr.ph75
  %.055.lcssa = phi float [ 0.000000e+00, %.lr.ph75 ], [ %29, %35 ]
  %36 = getelementptr inbounds nuw float, ptr %2, i64 %indvars.iv90
  %37 = load float, ptr %36, align 4, !tbaa !38
  %38 = fadd float %.055.lcssa, %37
  store float %38, ptr %36, align 4, !tbaa !38
  %indvars.iv.next91 = add nuw nsw i64 %indvars.iv90, 1
  %exitcond94.not = icmp eq i64 %indvars.iv.next91, %wide.trip.count93
  br i1 %exitcond94.not, label %.loopexit, label %.lr.ph75, !llvm.loop !43

.lr.ph67:                                         ; preds = %._crit_edge, %._crit_edge64
  %indvars.iv80 = phi i64 [ %indvars.iv.next81, %._crit_edge64 ], [ 0, %._crit_edge ]
  %39 = getelementptr inbounds nuw ptr, ptr %12, i64 %indvars.iv80
  %40 = load ptr, ptr %39, align 8, !tbaa !18
  %41 = getelementptr inbounds nuw i32, ptr %14, i64 %indvars.iv80
  %42 = load i32, ptr %41, align 4, !tbaa !17
  %43 = icmp sgt i32 %42, 0
  br i1 %43, label %.lr.ph63.preheader, label %._crit_edge64

.lr.ph63.preheader:                               ; preds = %.lr.ph67
  %wide.trip.count = zext nneg i32 %42 to i64
  br label %.lr.ph63

.lr.ph63:                                         ; preds = %.lr.ph63.preheader, %.lr.ph63
  %indvars.iv = phi i64 [ 0, %.lr.ph63.preheader ], [ %indvars.iv.next, %.lr.ph63 ]
  %.15660 = phi float [ 0.000000e+00, %.lr.ph63.preheader ], [ %51, %.lr.ph63 ]
  %44 = getelementptr inbounds nuw %struct.gmx_sparsematrix_entry, ptr %40, i64 %indvars.iv
  %45 = load i32, ptr %44, align 4, !tbaa !25
  %46 = getelementptr inbounds nuw i8, ptr %44, i64 4
  %47 = load float, ptr %46, align 4, !tbaa !29
  %48 = sext i32 %45 to i64
  %49 = getelementptr inbounds float, ptr %1, i64 %48
  %50 = load float, ptr %49, align 4, !tbaa !38
  %51 = tail call float @llvm.fmuladd.f32(float %47, float %50, float %.15660)
  %indvars.iv.next = add nuw nsw i64 %indvars.iv, 1
  %exitcond.not = icmp eq i64 %indvars.iv.next, %wide.trip.count
  br i1 %exitcond.not, label %._crit_edge64, label %.lr.ph63, !llvm.loop !44

._crit_edge64:                                    ; preds = %.lr.ph63, %.lr.ph67
  %.156.lcssa = phi float [ 0.000000e+00, %.lr.ph67 ], [ %51, %.lr.ph63 ]
  %52 = getelementptr inbounds nuw float, ptr %2, i64 %indvars.iv80
  %53 = load float, ptr %52, align 4, !tbaa !38
  %54 = fadd float %.156.lcssa, %53
  store float %54, ptr %52, align 4, !tbaa !38
  %indvars.iv.next81 = add nuw nsw i64 %indvars.iv80, 1
  %exitcond84.not = icmp eq i64 %indvars.iv.next81, %wide.trip.count93
  br i1 %exitcond84.not, label %.loopexit, label %.lr.ph67, !llvm.loop !45

.loopexit:                                        ; preds = %._crit_edge64, %._crit_edge72, %3
  ret void
}